; Function Attrs: mustprogress nofree norecurse nosync nounwind willreturn memory(none) uwtable
define nonnull ptr @l_Lake_Toml_decodeHexDigit(i32 noundef %0) local_unnamed_addr #3 {
  %2 = icmp ugt i32 %0, 57
  br i1 %2, label %3, label %15

3:                                                ; preds = %1
  %4 = icmp ugt i32 %0, 70
  br i1 %4, label %5, label %10

5:                                                ; preds = %3
  %6 = add i32 %0, -97
  %7 = zext i32 %6 to i64
  %8 = shl nuw nsw i64 %7, 1
  %9 = add nuw nsw i64 %8, 21
  br label %lean_dec.exit27

10:                                               ; preds = %3
  %11 = add nsw i32 %0, -65
  %12 = zext i32 %11 to i64
  %13 = shl nuw nsw i64 %12, 1
  %14 = add nuw nsw i64 %13, 21
  br label %lean_dec.exit27

15:                                               ; preds = %1
  %16 = add nsw i32 %0, -48
  %17 = zext i32 %16 to i64
  %18 = shl nuw nsw i64 %17, 1
  %19 = or disjoint i64 %18, 1
  br label %lean_dec.exit27

lean_dec.exit27:                                  ; preds = %10, %5, %15
  %.1.in = phi i64 [ %19, %15 ], [ %9, %5 ], [ %14, %10 ]
  %.1 = inttoptr i64 %.1.in to ptr
  ret ptr %.1
}